; Function Attrs: nofree norecurse nosync nounwind memory(argmem: readwrite) uwtable
define void @Extra_TruthChangePhase(ptr noundef captures(none) %0, i32 noundef %1, i32 noundef %2) local_unnamed_addr #2 {
  %4 = icmp slt i32 %1, 6
  %5 = add nsw i32 %1, -5
  %6 = shl nuw i32 1, %5
  %7 = select i1 %4, i32 1, i32 %6
  switch i32 %2, label %44 [
    i32 0, label %.preheader71
    i32 1, label %.preheader73
    i32 2, label %.preheader75
    i32 3, label %.preheader77
    i32 4, label %.preheader79
  ]

.preheader79:                                     ; preds = %3
  %8 = icmp sgt i32 %7, 0
  br i1 %8, label %.lr.ph.preheader, label %.loopexit

.lr.ph.preheader:                                 ; preds = %.preheader79
  %wide.trip.count = zext nneg i32 %7 to i64
  br label %.lr.ph

.preheader77:                                     ; preds = %3
  %9 = icmp sgt i32 %7, 0
  br i1 %9, label %.lr.ph83.preheader, label %.loopexit

.lr.ph83.preheader:                               ; preds = %.preheader77
  %wide.trip.count104 = zext nneg i32 %7 to i64
  br label %.lr.ph83

.preheader75:                                     ; preds = %3
  %10 = icmp sgt i32 %7, 0
  br i1 %10, label %.lr.ph85.preheader, label %.loopexit

.lr.ph85.preheader:                               ; preds = %.preheader75
  %wide.trip.count109 = zext nneg i32 %7 to i64
  br label %.lr.ph85

.preheader73:                                     ; preds = %3
  %11 = icmp sgt i32 %7, 0
  br i1 %11, label %.lr.ph87.preheader, label %.loopexit

.lr.ph87.preheader:                               ; preds = %.preheader73
  %wide.trip.count114 = zext nneg i32 %7 to i64
  br label %.lr.ph87

.preheader71:                                     ; preds = %3
  %12 = icmp sgt i32 %7, 0
  br i1 %12, label %.lr.ph89.preheader, label %.loopexit

.lr.ph89.preheader:                               ; preds = %.preheader71
  %wide.trip.count119 = zext nneg i32 %7 to i64
  br label %.lr.ph89

.lr.ph89:                                         ; preds = %.lr.ph89.preheader, %.lr.ph89
  %indvars.iv116 = phi i64 [ 0, %.lr.ph89.preheader ], [ %indvars.iv.next117, %.lr.ph89 ]
  %13 = getelementptr inbounds nuw i32, ptr %0, i64 %indvars.iv116
  %14 = load i32, ptr %13, align 4, !tbaa !3
  %15 = shl i32 %14, 1
  %16 = and i32 %15, -1431655766
  %17 = lshr i32 %14, 1
  %18 = and i32 %17, 1431655765
  %19 = or disjoint i32 %16, %18
  store i32 %19, ptr %13, align 4, !tbaa !3
  %indvars.iv.next117 = add nuw nsw i64 %indvars.iv116, 1
  %exitcond120.not = icmp eq i64 %indvars.iv.next117, %wide.trip.count119
  br i1 %exitcond120.not, label %.loopexit, label %.lr.ph89, !llvm.loop !81

.lr.ph87:                                         ; preds = %.lr.ph87.preheader, %.lr.ph87
  %indvars.iv111 = phi i64 [ 0, %.lr.ph87.preheader ], [ %indvars.iv.next112, %.lr.ph87 ]
  %20 = getelementptr inbounds nuw i32, ptr %0, i64 %indvars.iv111
  %21 = load i32, ptr %20, align 4, !tbaa !3
  %22 = shl i32 %21, 2
  %23 = and i32 %22, -858993460
  %24 = lshr i32 %21, 2
  %25 = and i32 %24, 858993459
  %26 = or disjoint i32 %23, %25
  store i32 %26, ptr %20, align 4, !tbaa !3
  %indvars.iv.next112 = add nuw nsw i64 %indvars.iv111, 1
  %exitcond115.not = icmp eq i64 %indvars.iv.next112, %wide.trip.count114
  br i1 %exitcond115.not, label %.loopexit, label %.lr.ph87, !llvm.loop !82

.lr.ph85:                                         ; preds = %.lr.ph85.preheader, %.lr.ph85
  %indvars.iv106 = phi i64 [ 0, %.lr.ph85.preheader ], [ %indvars.iv.next107, %.lr.ph85 ]
  %27 = getelementptr inbounds nuw i32, ptr %0, i64 %indvars.iv106
  %28 = load i32, ptr %27, align 4, !tbaa !3
  %29 = shl i32 %28, 4
  %30 = and i32 %29, -252645136
  %31 = lshr i32 %28, 4
  %32 = and i32 %31, 252645135
  %33 = or disjoint i32 %30, %32
  store i32 %33, ptr %27, align 4, !tbaa !3
  %indvars.iv.next107 = add nuw nsw i64 %indvars.iv106, 1
  %exitcond110.not = icmp eq i64 %indvars.iv.next107, %wide.trip.count109
  br i1 %exitcond110.not, label %.loopexit, label %.lr.ph85, !llvm.loop !83

.lr.ph83:                                         ; preds = %.lr.ph83.preheader, %.lr.ph83
  %indvars.iv101 = phi i64 [ 0, %.lr.ph83.preheader ], [ %indvars.iv.next102, %.lr.ph83 ]
  %34 = getelementptr inbounds nuw i32, ptr %0, i64 %indvars.iv101
  %35 = load i32, ptr %34, align 4, !tbaa !3
  %36 = shl i32 %35, 8
  %37 = and i32 %36, -16711936
  %38 = lshr i32 %35, 8
  %39 = and i32 %38, 16711935
  %40 = or disjoint i32 %37, %39
  store i32 %40, ptr %34, align 4, !tbaa !3
  %indvars.iv.next102 = add nuw nsw i64 %indvars.iv101, 1
  %exitcond105.not = icmp eq i64 %indvars.iv.next102, %wide.trip.count104
  br i1 %exitcond105.not, label %.loopexit, label %.lr.ph83, !llvm.loop !84

.lr.ph:                                           ; preds = %.lr.ph.preheader, %.lr.ph
  %indvars.iv = phi i64 [ 0, %.lr.ph.preheader ], [ %indvars.iv.next, %.lr.ph ]
  %41 = getelementptr inbounds nuw i32, ptr %0, i64 %indvars.iv
  %42 = load i32, ptr %41, align 4, !tbaa !3
  %43 = tail call i32 @llvm.fshl.i32(i32 %42, i32 %42, i32 16)
  store i32 %43, ptr %41, align 4, !tbaa !3
  %indvars.iv.next = add nuw nsw i64 %indvars.iv, 1
  %exitcond.not = icmp eq i64 %indvars.iv.next, %wide.trip.count
  br i1 %exitcond.not, label %.loopexit, label %.lr.ph, !llvm.loop !85

44:                                               ; preds = %3
  %45 = add nsw i32 %2, -5
  %46 = shl nuw i32 1, %45
  %47 = icmp sgt i32 %7, 0
  br i1 %47, label %.preheader.lr.ph, label %.loopexit

.preheader.lr.ph:                                 ; preds = %44
  %.not = icmp eq i32 %45, 31
  %48 = shl i32 2, %45
  %49 = sext i32 %48 to i64
  br i1 %.not, label %.loopexit, label %.preheader.us.preheader

.preheader.us.preheader:                          ; preds = %.preheader.lr.ph
  %50 = sext i32 %46 to i64
  %smax = tail call i32 @llvm.smax.i32(i32 %46, i32 1)
  %wide.trip.count124 = zext nneg i32 %smax to i64
  br label %.preheader.us

.preheader.us:                                    ; preds = %.preheader.us.preheader, %._crit_edge.us
  %.093.us = phi ptr [ %55, %._crit_edge.us ], [ %0, %.preheader.us.preheader ]
  %.06892.us = phi i32 [ %56, %._crit_edge.us ], [ 0, %.preheader.us.preheader ]
  %invariant.gep = getelementptr i32, ptr %.093.us, i64 %50
  br label %51

51:                                               ; preds = %.preheader.us, %51
  %indvars.iv121 = phi i64 [ 0, %.preheader.us ], [ %indvars.iv.next122, %51 ]
  %52 = getelementptr inbounds nuw i32, ptr %.093.us, i64 %indvars.iv121
  %53 = load i32, ptr %52, align 4, !tbaa !3
  %gep = getelementptr i32, ptr %invariant.gep, i64 %indvars.iv121
  %54 = load i32, ptr %gep, align 4, !tbaa !3
  store i32 %54, ptr %52, align 4, !tbaa !3
  store i32 %53, ptr %gep, align 4, !tbaa !3
  %indvars.iv.next122 = add nuw nsw i64 %indvars.iv121, 1
  %exitcond125.not = icmp eq i64 %indvars.iv.next122, %wide.trip.count124
  br i1 %exitcond125.not, label %._crit_edge.us, label %51, !llvm.loop !86

._crit_edge.us:                                   ; preds = %51
  %55 = getelementptr inbounds i32, ptr %.093.us, i64 %49
  %56 = add nsw i32 %.06892.us, %48
  %57 = icmp slt i32 %56, %7
  br i1 %57, label %.preheader.us, label %.loopexit, !llvm.loop !87

.loopexit:                                        ; preds = %.lr.ph, %.lr.ph83, %.lr.ph85, %.lr.ph87, %.lr.ph89, %._crit_edge.us, %.preheader.lr.ph, %.preheader79, %.preheader77, %.preheader75, %.preheader73, %.preheader71, %44
  ret void
}